; ModuleID = '29/1778.c'
source_filename = "29/1778.c"
target datalayout = "e-m:e-p270:32:32-p271:32:32-p272:64:64-i64:64-f80:128-n8:16:32:64-S128"
target triple = "x86_64-pc-linux-gnu"

@.str = private unnamed_addr constant [3 x i8] c"%d\00", align 1
@.str.1 = private unnamed_addr constant [7 x i8] c"%.3lf\0A\00", align 1

; Function Attrs: noinline nounwind uwtable
define dso_local i32 @main() #0 {
  %1 = alloca i32, align 4
  %2 = alloca i32, align 4
  %3 = alloca i32, align 4
  %4 = alloca i32, align 4
  %5 = alloca i32, align 4
  %6 = alloca i32, align 4
  %7 = alloca i32, align 4
  %8 = alloca i32, align 4
  %9 = alloca float, align 4
  store i32 0, i32* %1, align 4
  %10 = call i32 (i8*, ...) @__isoc99_scanf(i8* getelementptr inbounds ([3 x i8], [3 x i8]* @.str, i64 0, i64 0), i32* %2)
  store i32 1, i32* %7, align 4
  br label %11

11:                                               ; preds = %40, %0
  %12 = load i32, i32* %7, align 4
  %13 = load i32, i32* %2, align 4
  %14 = icmp sle i32 %12, %13
  br i1 %14, label %15, label %43

15:                                               ; preds = %11
  %16 = call i32 (i8*, ...) @__isoc99_scanf(i8* getelementptr inbounds ([3 x i8], [3 x i8]* @.str, i64 0, i64 0), i32* %3)
  store i32 1, i32* %8, align 4
  store float 0.000000e+00, float* %9, align 4
  store i32 2, i32* %4, align 4
  store i32 1, i32* %5, align 4
  br label %17

17:                                               ; preds = %32, %15
  %18 = load float, float* %9, align 4
  %19 = load i32, i32* %4, align 4
  %20 = sitofp i32 %19 to float
  %21 = load i32, i32* %5, align 4
  %22 = sitofp i32 %21 to float
  %23 = fdiv float %20, %22
  %24 = fadd float %18, %23
  store float %24, float* %9, align 4
  %25 = load i32, i32* %4, align 4
  store i32 %25, i32* %6, align 4
  %26 = load i32, i32* %4, align 4
  %27 = load i32, i32* %5, align 4
  %28 = add nsw i32 %26, %27
  store i32 %28, i32* %4, align 4
  %29 = load i32, i32* %6, align 4
  store i32 %29, i32* %5, align 4
  %30 = load i32, i32* %8, align 4
  %31 = add nsw i32 %30, 1
  store i32 %31, i32* %8, align 4
  br label %32

32:                                               ; preds = %17
  %33 = load i32, i32* %8, align 4
  %34 = load i32, i32* %3, align 4
  %35 = icmp sle i32 %33, %34
  br i1 %35, label %17, label %36

36:                                               ; preds = %32
  %37 = load float, float* %9, align 4
  %38 = fpext float %37 to double
  %39 = call i32 (i8*, ...) @printf(i8* getelementptr inbounds ([7 x i8], [7 x i8]* @.str.1, i64 0, i64 0), double %38)
  br label %40

40:                                               ; preds = %36
  %41 = load i32, i32* %7, align 4
  %42 = add nsw i32 %41, 1
  store i32 %42, i32* %7, align 4
  br label %11

43:                                               ; preds = %11
  %44 = load i32, i32* %1, align 4
  ret i32 %44
}

declare dso_local i32 @__isoc99_scanf(i8*, ...) #1

declare dso_local i32 @printf(i8*, ...) #1


!llvm.module.flags = !{!0}
!llvm.ident = !{!1}

!0 = !{i32 1, !"wchar_size", i32 4}
!1 = !{!"clang version 10.0.0-4ubuntu1 "}
